; Function Attrs: null_pointer_is_valid sspstrong uwtable
define internal noundef zeroext i1 @dissect_http2_heur_ssl(ptr noundef %0, ptr noundef %1, ptr noundef %2, ptr noundef readonly captures(none) %3) #1 {
  %5 = tail call zeroext i1 @dissect_http2_heur(ptr noundef %0, ptr noundef %1, ptr noundef %2, ptr noundef null)
  br i1 %5, label %6, label %10

6:                                                ; preds = %4
  %7 = load ptr, ptr @http2_handle, align 8
  %8 = getelementptr inbounds nuw i8, ptr %3, i64 8
  %9 = load ptr, ptr %8, align 8
  store ptr %7, ptr %9, align 8
  br label %10

10:                                               ; preds = %4, %6
  ret i1 %5
}